target datalayout = "e-m:e-p270:32:32-p271:32:32-p272:64:64-i64:64-i128:128-f80:128-n8:16:32:64-S128"
target triple = "x86_64-pc-linux-gnu"

%struct.AVRational = type { i32, i32 }
%struct.MOVAtom = type { i32, i64 }
%struct.MOVContext = type { ptr, ptr, i32, i64, i32, i32, i32, i32, i32, i32, ptr, i32, ptr, ptr, i32, %struct.MOVFragment, ptr, i32, i32, i32, ptr, i32, i32, i32, i32, i32, i32, i32, i64, i32, i32, ptr, i32, i32, i32, i32, i32, %struct.MOVFragmentIndex, i32, i32, [20 x i8], [20 x i8], ptr, i32, ptr, i32, ptr, i32, ptr, i32, ptr, ptr, i32, i32, [3 x [3 x i32]], i32, i32, i32, i32, i32, ptr, i32, ptr, i32, i32, i64, i32 }
%struct.MOVFragment = type { i32, i32, i64, i64, i64, i32, i32, i32, i32 }
%struct.MOVFragmentIndex = type { i32, i32, i32, i32, ptr }
%struct.AVFormatContext = type { ptr, ptr, ptr, ptr, ptr, i32, i32, ptr, i32, ptr, i32, ptr, ptr, i64, i64, i64, i32, i32, i32, i64, i64, ptr, i32, i32, ptr, i32, i32, i32, i32, ptr, i64, i32, i32, %struct.AVIOInterruptCB, i32, i32, i32, i32, i64, i32, i32, i32, i32, i32, i32, i32, i32, i32, i32, i32, i32, i64, i32, i32, i32, i32, i32, ptr, ptr, ptr, ptr, i32, ptr, ptr, ptr, ptr, i32, ptr, ptr, i64, ptr, ptr, ptr, i64 }
%struct.AVIOInterruptCB = type { ptr, ptr }
%struct.AVStream = type { ptr, i32, i32, ptr, ptr, %struct.AVRational, i64, i64, i64, i32, i32, %struct.AVRational, ptr, %struct.AVRational, %struct.AVPacket, i32, %struct.AVRational, i32 }
%struct.AVPacket = type { ptr, i64, i64, ptr, i32, i32, i32, ptr, i32, i64, i64, ptr, ptr, %struct.AVRational }
%struct.AVCodecParameters = type { i32, i32, i32, ptr, i32, ptr, i32, i32, i64, i32, i32, i32, i32, i32, i32, %struct.AVRational, %struct.AVRational, i32, i32, i32, i32, i32, i32, i32, %struct.AVChannelLayout, i32, i32, i32, i32, i32, i32 }
%struct.AVChannelLayout = type { i32, i32, %union.anon, ptr }
%union.anon = type { i64 }
%struct.MOVStreamContext = type { ptr, i32, i32, i32, i32, i32, i32, ptr, i32, i32, ptr, i32, i32, ptr, i32, ptr, i32, i32, ptr, i32, ptr, i32, i32, i32, ptr, ptr, i32, i32, i32, i32, i32, i32, ptr, i32, i32, ptr, i32, i64, i64, i32, i64, ptr, ptr, i32, i32, i32, i32, i16, i32, ptr, i32, i32, i32, i32, i32, i32, i32, i32, i32, [256 x i32], i32, i64, i32, i8, i64, i32, i32, ptr, i32, ptr, ptr, i32, ptr, i32, ptr, i32, i32, i32, i64, ptr, ptr, i32, i32, i32, ptr, ptr, i64, ptr, i64, ptr, i64, ptr, i64, ptr, i64, i32, i32, %struct.anon, ptr, i32 }
%struct.anon = type { ptr, ptr, i32, ptr, ptr }

@.str.130 = private unnamed_addr constant [25 x i8] c"invalid STSD entries %d\0A\00", align 1
@.str.131 = private unnamed_addr constant [37 x i8] c"Duplicate stsd found in this track.\0A\00", align 1

; Function Attrs: nounwind uwtable
define internal i32 @mov_read_stsd(ptr noundef %0, ptr noundef %1, i32 %2, i64 %3) #0 {
  %5 = alloca i32, align 4
  %6 = alloca %struct.MOVAtom, align 8
  %7 = alloca ptr, align 8
  %8 = alloca ptr, align 8
  %9 = alloca ptr, align 8
  %10 = alloca ptr, align 8
  %11 = alloca i32, align 4
  %12 = alloca i32, align 4
  %13 = alloca i32, align 4
  %14 = alloca i32, align 4
  %15 = getelementptr inbounds nuw { i32, i64 }, ptr %6, i32 0, i32 0
  store i32 %2, ptr %15, align 8
  %16 = getelementptr inbounds nuw { i32, i64 }, ptr %6, i32 0, i32 1
  store i64 %3, ptr %16, align 8
  store ptr %0, ptr %7, align 8, !tbaa !4
  store ptr %1, ptr %8, align 8, !tbaa !9
  call void @llvm.lifetime.start.p0(i64 8, ptr %9) #14
  call void @llvm.lifetime.start.p0(i64 8, ptr %10) #14
  call void @llvm.lifetime.start.p0(i64 4, ptr %11) #14
  call void @llvm.lifetime.start.p0(i64 4, ptr %12) #14
  %17 = load ptr, ptr %7, align 8, !tbaa !4
  %18 = getelementptr inbounds nuw %struct.MOVContext, ptr %17, i32 0, i32 1
  %19 = load ptr, ptr %18, align 8, !tbaa !13
  %20 = getelementptr inbounds nuw %struct.AVFormatContext, ptr %19, i32 0, i32 6
  %21 = load i32, ptr %20, align 4, !tbaa !30
  %22 = icmp ult i32 %21, 1
  br i1 %22, label %23, label %24

23:                                               ; preds = %4
  store i32 0, ptr %5, align 4
  store i32 1, ptr %13, align 4
  br label %198

24:                                               ; preds = %4
  %25 = load ptr, ptr %7, align 8, !tbaa !4
  %26 = getelementptr inbounds nuw %struct.MOVContext, ptr %25, i32 0, i32 1
  %27 = load ptr, ptr %26, align 8, !tbaa !13
  %28 = getelementptr inbounds nuw %struct.AVFormatContext, ptr %27, i32 0, i32 7
  %29 = load ptr, ptr %28, align 8, !tbaa !41
  %30 = load ptr, ptr %7, align 8, !tbaa !4
  %31 = getelementptr inbounds nuw %struct.MOVContext, ptr %30, i32 0, i32 1
  %32 = load ptr, ptr %31, align 8, !tbaa !13
  %33 = getelementptr inbounds nuw %struct.AVFormatContext, ptr %32, i32 0, i32 6
  %34 = load i32, ptr %33, align 4, !tbaa !30
  %35 = sub i32 %34, 1
  %36 = zext i32 %35 to i64
  %37 = getelementptr inbounds nuw ptr, ptr %29, i64 %36
  %38 = load ptr, ptr %37, align 8, !tbaa !42
  store ptr %38, ptr %9, align 8, !tbaa !42
  %39 = load ptr, ptr %9, align 8, !tbaa !42
  %40 = getelementptr inbounds nuw %struct.AVStream, ptr %39, i32 0, i32 4
  %41 = load ptr, ptr %40, align 8, !tbaa !44
  store ptr %41, ptr %10, align 8, !tbaa !51
  %42 = load ptr, ptr %8, align 8, !tbaa !9
  %43 = call i32 @avio_r8(ptr noundef %42)
  %44 = load ptr, ptr %10, align 8, !tbaa !51
  %45 = getelementptr inbounds nuw %struct.MOVStreamContext, ptr %44, i32 0, i32 83
  store i32 %43, ptr %45, align 8, !tbaa !114
  %46 = load ptr, ptr %8, align 8, !tbaa !9
  %47 = call i32 @avio_rb24(ptr noundef %46)
  %48 = load ptr, ptr %8, align 8, !tbaa !9
  %49 = call i32 @avio_rb32(ptr noundef %48)
  store i32 %49, ptr %12, align 4, !tbaa !11
  %50 = load i32, ptr %12, align 4, !tbaa !11
  %51 = icmp sle i32 %50, 0
  br i1 %51, label %62, label %52

52:                                               ; preds = %24
  %53 = load i32, ptr %12, align 4, !tbaa !11
  %54 = sext i32 %53 to i64
  %55 = getelementptr inbounds nuw %struct.MOVAtom, ptr %6, i32 0, i32 1
  %56 = load i64, ptr %55, align 8, !tbaa !58
  %57 = sdiv i64 %56, 8
  %58 = icmp sgt i64 %54, %57
  br i1 %58, label %62, label %59

59:                                               ; preds = %52
  %60 = load i32, ptr %12, align 4, !tbaa !11
  %61 = icmp sgt i32 %60, 1024
  br i1 %61, label %62, label %67

62:                                               ; preds = %59, %52, %24
  %63 = load ptr, ptr %7, align 8, !tbaa !4
  %64 = getelementptr inbounds nuw %struct.MOVContext, ptr %63, i32 0, i32 1
  %65 = load ptr, ptr %64, align 8, !tbaa !13
  %66 = load i32, ptr %12, align 4, !tbaa !11
  call void (ptr, i32, ptr, ...) @av_log(ptr noundef %65, i32 noundef 16, ptr noundef @.str.130, i32 noundef %66)
  store i32 -1094995529, ptr %5, align 4
  store i32 1, ptr %13, align 4
  br label %198

67:                                               ; preds = %59
  %68 = load ptr, ptr %10, align 8, !tbaa !51
  %69 = getelementptr inbounds nuw %struct.MOVStreamContext, ptr %68, i32 0, i32 79
  %70 = load ptr, ptr %69, align 8, !tbaa !93
  %71 = icmp ne ptr %70, null
  br i1 %71, label %72, label %76

72:                                               ; preds = %67
  %73 = load ptr, ptr %7, align 8, !tbaa !4
  %74 = getelementptr inbounds nuw %struct.MOVContext, ptr %73, i32 0, i32 1
  %75 = load ptr, ptr %74, align 8, !tbaa !13
  call void (ptr, i32, ptr, ...) @av_log(ptr noundef %75, i32 noundef 16, ptr noundef @.str.131)
  store i32 -1094995529, ptr %5, align 4
  store i32 1, ptr %13, align 4
  br label %198

76:                                               ; preds = %67
  %77 = load i32, ptr %12, align 4, !tbaa !11
  %78 = sext i32 %77 to i64
  %79 = call noalias ptr @av_calloc(i64 noundef %78, i64 noundef 8)
  %80 = load ptr, ptr %10, align 8, !tbaa !51
  %81 = getelementptr inbounds nuw %struct.MOVStreamContext, ptr %80, i32 0, i32 79
  store ptr %79, ptr %81, align 8, !tbaa !93
  %82 = load ptr, ptr %10, align 8, !tbaa !51
  %83 = getelementptr inbounds nuw %struct.MOVStreamContext, ptr %82, i32 0, i32 79
  %84 = load ptr, ptr %83, align 8, !tbaa !93
  %85 = icmp ne ptr %84, null
  br i1 %85, label %87, label %86

86:                                               ; preds = %76
  store i32 -12, ptr %5, align 4
  store i32 1, ptr %13, align 4
  br label %198

87:                                               ; preds = %76
  %88 = load i32, ptr %12, align 4, !tbaa !11
  %89 = sext i32 %88 to i64
  %90 = call noalias ptr @av_calloc(i64 noundef %89, i64 noundef 4)
  %91 = load ptr, ptr %10, align 8, !tbaa !51
  %92 = getelementptr inbounds nuw %struct.MOVStreamContext, ptr %91, i32 0, i32 80
  store ptr %90, ptr %92, align 8, !tbaa !96
  %93 = load ptr, ptr %10, align 8, !tbaa !51
  %94 = getelementptr inbounds nuw %struct.MOVStreamContext, ptr %93, i32 0, i32 80
  %95 = load ptr, ptr %94, align 8, !tbaa !96
  %96 = icmp ne ptr %95, null
  br i1 %96, label %98, label %97

97:                                               ; preds = %87
  store i32 -12, ptr %11, align 4, !tbaa !11
  br label %169

98:                                               ; preds = %87
  %99 = load ptr, ptr %7, align 8, !tbaa !4
  %100 = load ptr, ptr %8, align 8, !tbaa !9
  %101 = load i32, ptr %12, align 4, !tbaa !11
  %102 = call i32 @ff_mov_read_stsd_entries(ptr noundef %99, ptr noundef %100, i32 noundef %101)
  store i32 %102, ptr %11, align 4, !tbaa !11
  %103 = load i32, ptr %11, align 4, !tbaa !11
  %104 = icmp slt i32 %103, 0
  br i1 %104, label %105, label %106

105:                                              ; preds = %98
  br label %169

106:                                              ; preds = %98
  %107 = load ptr, ptr %9, align 8, !tbaa !42
  %108 = getelementptr inbounds nuw %struct.AVStream, ptr %107, i32 0, i32 3
  %109 = load ptr, ptr %108, align 8, !tbaa !60
  %110 = getelementptr inbounds nuw %struct.AVCodecParameters, ptr %109, i32 0, i32 3
  call void @av_freep(ptr noundef %110)
  %111 = load ptr, ptr %10, align 8, !tbaa !51
  %112 = getelementptr inbounds nuw %struct.MOVStreamContext, ptr %111, i32 0, i32 80
  %113 = load ptr, ptr %112, align 8, !tbaa !96
  %114 = getelementptr inbounds i32, ptr %113, i64 0
  %115 = load i32, ptr %114, align 4, !tbaa !11
  %116 = load ptr, ptr %9, align 8, !tbaa !42
  %117 = getelementptr inbounds nuw %struct.AVStream, ptr %116, i32 0, i32 3
  %118 = load ptr, ptr %117, align 8, !tbaa !60
  %119 = getelementptr inbounds nuw %struct.AVCodecParameters, ptr %118, i32 0, i32 4
  store i32 %115, ptr %119, align 8, !tbaa !95
  %120 = load ptr, ptr %10, align 8, !tbaa !51
  %121 = getelementptr inbounds nuw %struct.MOVStreamContext, ptr %120, i32 0, i32 80
  %122 = load ptr, ptr %121, align 8, !tbaa !96
  %123 = getelementptr inbounds i32, ptr %122, i64 0
  %124 = load i32, ptr %123, align 4, !tbaa !11
  %125 = icmp ne i32 %124, 0
  br i1 %125, label %126, label %163

126:                                              ; preds = %106
  %127 = load ptr, ptr %10, align 8, !tbaa !51
  %128 = getelementptr inbounds nuw %struct.MOVStreamContext, ptr %127, i32 0, i32 80
  %129 = load ptr, ptr %128, align 8, !tbaa !96
  %130 = getelementptr inbounds i32, ptr %129, i64 0
  %131 = load i32, ptr %130, align 4, !tbaa !11
  %132 = add nsw i32 %131, 64
  %133 = sext i32 %132 to i64
  %134 = call noalias ptr @av_mallocz(i64 noundef %133)
  %135 = load ptr, ptr %9, align 8, !tbaa !42
  %136 = getelementptr inbounds nuw %struct.AVStream, ptr %135, i32 0, i32 3
  %137 = load ptr, ptr %136, align 8, !tbaa !60
  %138 = getelementptr inbounds nuw %struct.AVCodecParameters, ptr %137, i32 0, i32 3
  store ptr %134, ptr %138, align 8, !tbaa !94
  %139 = load ptr, ptr %9, align 8, !tbaa !42
  %140 = getelementptr inbounds nuw %struct.AVStream, ptr %139, i32 0, i32 3
  %141 = load ptr, ptr %140, align 8, !tbaa !60
  %142 = getelementptr inbounds nuw %struct.AVCodecParameters, ptr %141, i32 0, i32 3
  %143 = load ptr, ptr %142, align 8, !tbaa !94
  %144 = icmp ne ptr %143, null
  br i1 %144, label %146, label %145

145:                                              ; preds = %126
  store i32 -12, ptr %5, align 4
  store i32 1, ptr %13, align 4
  br label %198

146:                                              ; preds = %126
  %147 = load ptr, ptr %9, align 8, !tbaa !42
  %148 = getelementptr inbounds nuw %struct.AVStream, ptr %147, i32 0, i32 3
  %149 = load ptr, ptr %148, align 8, !tbaa !60
  %150 = getelementptr inbounds nuw %struct.AVCodecParameters, ptr %149, i32 0, i32 3
  %151 = load ptr, ptr %150, align 8, !tbaa !94
  %152 = load ptr, ptr %10, align 8, !tbaa !51
  %153 = getelementptr inbounds nuw %struct.MOVStreamContext, ptr %152, i32 0, i32 79
  %154 = load ptr, ptr %153, align 8, !tbaa !93
  %155 = getelementptr inbounds ptr, ptr %154, i64 0
  %156 = load ptr, ptr %155, align 8, !tbaa !97
  %157 = load ptr, ptr %10, align 8, !tbaa !51
  %158 = getelementptr inbounds nuw %struct.MOVStreamContext, ptr %157, i32 0, i32 80
  %159 = load ptr, ptr %158, align 8, !tbaa !96
  %160 = getelementptr inbounds i32, ptr %159, i64 0
  %161 = load i32, ptr %160, align 4, !tbaa !11
  %162 = sext i32 %161 to i64
  call void @llvm.memcpy.p0.p0.i64(ptr align 1 %151, ptr align 1 %156, i64 %162, i1 false)
  br label %163

163:                                              ; preds = %146, %106
  %164 = load ptr, ptr %7, align 8, !tbaa !4
  %165 = load ptr, ptr %8, align 8, !tbaa !9
  %166 = load ptr, ptr %9, align 8, !tbaa !42
  %167 = load ptr, ptr %10, align 8, !tbaa !51
  %168 = call i32 @mov_finalize_stsd_codec(ptr noundef %164, ptr noundef %165, ptr noundef %166, ptr noundef %167)
  store i32 %168, ptr %5, align 4
  store i32 1, ptr %13, align 4
  br label %198

169:                                              ; preds = %105, %97
  %170 = load ptr, ptr %10, align 8, !tbaa !51
  %171 = getelementptr inbounds nuw %struct.MOVStreamContext, ptr %170, i32 0, i32 79
  %172 = load ptr, ptr %171, align 8, !tbaa !93
  %173 = icmp ne ptr %172, null
  br i1 %173, label %174, label %192

174:                                              ; preds = %169
  call void @llvm.lifetime.start.p0(i64 4, ptr %14) #14
  store i32 0, ptr %14, align 4, !tbaa !11
  br label %175

175:                                              ; preds = %188, %174
  %176 = load i32, ptr %14, align 4, !tbaa !11
  %177 = load ptr, ptr %10, align 8, !tbaa !51
  %178 = getelementptr inbounds nuw %struct.MOVStreamContext, ptr %177, i32 0, i32 82
  %179 = load i32, ptr %178, align 4, !tbaa !64
  %180 = icmp slt i32 %176, %179
  br i1 %180, label %181, label %191

181:                                              ; preds = %175
  %182 = load ptr, ptr %10, align 8, !tbaa !51
  %183 = getelementptr inbounds nuw %struct.MOVStreamContext, ptr %182, i32 0, i32 79
  %184 = load ptr, ptr %183, align 8, !tbaa !93
  %185 = load i32, ptr %14, align 4, !tbaa !11
  %186 = sext i32 %185 to i64
  %187 = getelementptr inbounds ptr, ptr %184, i64 %186
  call void @av_freep(ptr noundef %187)
  br label %188

188:                                              ; preds = %181
  %189 = load i32, ptr %14, align 4, !tbaa !11
  %190 = add nsw i32 %189, 1
  store i32 %190, ptr %14, align 4, !tbaa !11
  br label %175, !llvm.loop !381

191:                                              ; preds = %175
  call void @llvm.lifetime.end.p0(i64 4, ptr %14) #14
  br label %192

192:                                              ; preds = %191, %169
  %193 = load ptr, ptr %10, align 8, !tbaa !51
  %194 = getelementptr inbounds nuw %struct.MOVStreamContext, ptr %193, i32 0, i32 79
  call void @av_freep(ptr noundef %194)
  %195 = load ptr, ptr %10, align 8, !tbaa !51
  %196 = getelementptr inbounds nuw %struct.MOVStreamContext, ptr %195, i32 0, i32 80
  call void @av_freep(ptr noundef %196)
  %197 = load i32, ptr %11, align 4, !tbaa !11
  store i32 %197, ptr %5, align 4
  store i32 1, ptr %13, align 4
  br label %198

198:                                              ; preds = %192, %163, %145, %86, %72, %62, %23
  call void @llvm.lifetime.end.p0(i64 4, ptr %12) #14
  call void @llvm.lifetime.end.p0(i64 4, ptr %11) #14
  call void @llvm.lifetime.end.p0(i64 8, ptr %10) #14
  call void @llvm.lifetime.end.p0(i64 8, ptr %9) #14
  %199 = load i32, ptr %5, align 4
  ret i32 %199
}