; Function Attrs: nounwind uwtable
define internal range(i32 -2147483648, 1) i32 @mov_read_stsd(ptr noundef %0, ptr noundef %1, i32 %2, i64 %3) #0 {
  %5 = getelementptr inbounds nuw i8, ptr %0, i64 8
  %6 = load ptr, ptr %5, align 8, !tbaa !4
  %7 = getelementptr inbounds nuw i8, ptr %6, i64 44
  %8 = load i32, ptr %7, align 4, !tbaa !25
  %9 = icmp eq i32 %8, 0
  br i1 %9, label %76, label %10

10:                                               ; preds = %4
  %11 = getelementptr inbounds nuw i8, ptr %6, i64 48
  %12 = load ptr, ptr %11, align 8, !tbaa !37
  %13 = add i32 %8, -1
  %14 = zext i32 %13 to i64
  %15 = getelementptr inbounds nuw ptr, ptr %12, i64 %14
  %16 = load ptr, ptr %15, align 8, !tbaa !38
  %17 = getelementptr inbounds nuw i8, ptr %16, i64 24
  %18 = load ptr, ptr %17, align 8, !tbaa !40
  %19 = tail call i32 @avio_r8(ptr noundef %1) #16
  %20 = getelementptr inbounds nuw i8, ptr %18, i64 1496
  store i32 %19, ptr %20, align 8, !tbaa !97
  %21 = tail call i32 @avio_rb24(ptr noundef %1) #16
  %22 = tail call i32 @avio_rb32(ptr noundef %1) #16
  %23 = icmp slt i32 %22, 1
  br i1 %23, label %29, label %24

24:                                               ; preds = %10
  %25 = zext nneg i32 %22 to i64
  %26 = sdiv i64 %3, 8
  %27 = icmp slt i64 %26, %25
  %28 = icmp samesign ugt i32 %22, 1024
  %or.cond = or i1 %28, %27
  br i1 %or.cond, label %29, label %31

29:                                               ; preds = %24, %10
  %30 = load ptr, ptr %5, align 8, !tbaa !4
  tail call void (ptr, i32, ptr, ...) @av_log(ptr noundef %30, i32 noundef 16, ptr noundef nonnull @.str.130, i32 noundef %22) #16
  br label %76

31:                                               ; preds = %24
  %32 = getelementptr inbounds nuw i8, ptr %18, i64 1472
  %33 = load ptr, ptr %32, align 8, !tbaa !120
  %.not = icmp eq ptr %33, null
  br i1 %.not, label %36, label %34

34:                                               ; preds = %31
  %35 = load ptr, ptr %5, align 8, !tbaa !4
  tail call void (ptr, i32, ptr, ...) @av_log(ptr noundef %35, i32 noundef 16, ptr noundef nonnull @.str.131) #16
  br label %76

36:                                               ; preds = %31
  %37 = tail call noalias ptr @av_calloc(i64 noundef %25, i64 noundef 8) #16
  store ptr %37, ptr %32, align 8, !tbaa !120
  %.not57 = icmp eq ptr %37, null
  br i1 %.not57, label %76, label %38

38:                                               ; preds = %36
  %39 = tail call noalias ptr @av_calloc(i64 noundef %25, i64 noundef 4) #16
  %40 = getelementptr inbounds nuw i8, ptr %18, i64 1480
  store ptr %39, ptr %40, align 8, !tbaa !122
  %.not58 = icmp eq ptr %39, null
  br i1 %.not58, label %66, label %41

41:                                               ; preds = %38
  %42 = tail call i32 @ff_mov_read_stsd_entries(ptr noundef nonnull %0, ptr noundef %1, i32 noundef %22)
  %43 = icmp slt i32 %42, 0
  br i1 %43, label %66, label %44

44:                                               ; preds = %41
  %45 = getelementptr inbounds nuw i8, ptr %16, i64 16
  %46 = load ptr, ptr %45, align 8, !tbaa !49
  %47 = getelementptr inbounds nuw i8, ptr %46, i64 16
  tail call void @av_freep(ptr noundef nonnull %47) #16
  %48 = load ptr, ptr %40, align 8, !tbaa !122
  %49 = load i32, ptr %48, align 4, !tbaa !83
  %50 = load ptr, ptr %45, align 8, !tbaa !49
  %51 = getelementptr inbounds nuw i8, ptr %50, i64 24
  store i32 %49, ptr %51, align 8, !tbaa !121
  %.not59 = icmp eq i32 %49, 0
  br i1 %.not59, label %64, label %52

52:                                               ; preds = %44
  %53 = add nsw i32 %49, 64
  %54 = sext i32 %53 to i64
  %55 = tail call noalias ptr @av_mallocz(i64 noundef %54) #16
  %56 = load ptr, ptr %45, align 8, !tbaa !49
  %57 = getelementptr inbounds nuw i8, ptr %56, i64 16
  store ptr %55, ptr %57, align 8, !tbaa !115
  %.not60 = icmp eq ptr %55, null
  br i1 %.not60, label %76, label %58

58:                                               ; preds = %52
  %59 = load ptr, ptr %32, align 8, !tbaa !120
  %60 = load ptr, ptr %59, align 8, !tbaa !123
  %61 = load ptr, ptr %40, align 8, !tbaa !122
  %62 = load i32, ptr %61, align 4, !tbaa !83
  %63 = sext i32 %62 to i64
  tail call void @llvm.memcpy.p0.p0.i64(ptr nonnull align 1 %55, ptr align 1 %60, i64 %63, i1 false)
  br label %64

64:                                               ; preds = %58, %44
  %65 = tail call fastcc i32 @mov_finalize_stsd_codec(ptr noundef nonnull %0, ptr noundef nonnull %16, ptr noundef nonnull %18)
  br label %76

66:                                               ; preds = %38, %41
  %.050 = phi i32 [ %42, %41 ], [ -12, %38 ]
  %67 = load ptr, ptr %32, align 8, !tbaa !120
  %.not61 = icmp eq ptr %67, null
  br i1 %.not61, label %.loopexit, label %.preheader

.preheader:                                       ; preds = %66
  %68 = getelementptr inbounds nuw i8, ptr %18, i64 1492
  %69 = load i32, ptr %68, align 4, !tbaa !124
  %70 = icmp sgt i32 %69, 0
  br i1 %70, label %.lr.ph, label %.loopexit

.lr.ph:                                           ; preds = %.preheader, %.lr.ph
  %indvars.iv = phi i64 [ %indvars.iv.next, %.lr.ph ], [ 0, %.preheader ]
  %71 = load ptr, ptr %32, align 8, !tbaa !120
  %72 = getelementptr inbounds nuw ptr, ptr %71, i64 %indvars.iv
  tail call void @av_freep(ptr noundef %72) #16
  %indvars.iv.next = add nuw nsw i64 %indvars.iv, 1
  %73 = load i32, ptr %68, align 4, !tbaa !124
  %74 = sext i32 %73 to i64
  %75 = icmp slt i64 %indvars.iv.next, %74
  br i1 %75, label %.lr.ph, label %.loopexit, !llvm.loop !472

.loopexit:                                        ; preds = %.lr.ph, %.preheader, %66
  tail call void @av_freep(ptr noundef nonnull %32) #16
  tail call void @av_freep(ptr noundef nonnull %40) #16
  br label %76

76:                                               ; preds = %52, %36, %4, %.loopexit, %64, %34, %29
  %.049 = phi i32 [ -1094995529, %29 ], [ -1094995529, %34 ], [ %.050, %.loopexit ], [ %65, %64 ], [ 0, %4 ], [ -12, %36 ], [ -12, %52 ]
  ret i32 %.049
}